(lp0
S'poi'
p1
aS'salary'
p2
aS'bonus'
p3
aS'from_poi_to_this_person'
p4
aS'from_this_person_to_poi'
p5
aS'shared_receipt_with_poi'
p6
aS'exercised_stock_options'
p7
aS'restricted_stock_deferred'
p8
a.